target datalayout = "e-m:e-p270:32:32-p271:32:32-p272:64:64-i64:64-i128:128-f80:128-n8:16:32:64-S128"
target triple = "x86_64-pc-linux-gnu"

%struct.mpd_t = type { i8, i64, i64, i64, i64, ptr }

@mpd_reallocfunc = hidden global ptr @realloc, align 8

; Function Attrs: inlinehint nounwind uwtable
define internal void @_mpd_mul_words(ptr noundef %0, ptr noundef %1, i64 noundef %2, i64 noundef %3) #6 {
  %5 = alloca ptr, align 8
  %6 = alloca ptr, align 8
  %7 = alloca i64, align 8
  %8 = alloca i64, align 8
  %9 = alloca i128, align 16
  store ptr %0, ptr %5, align 8, !tbaa !9
  store ptr %1, ptr %6, align 8, !tbaa !9
  store i64 %2, ptr %7, align 8, !tbaa !3
  store i64 %3, ptr %8, align 8, !tbaa !3
  call void @llvm.lifetime.start.p0(i64 16, ptr %9) #10
  %10 = load i64, ptr %7, align 8, !tbaa !3
  %11 = zext i64 %10 to i128
  %12 = load i64, ptr %8, align 8, !tbaa !3
  %13 = zext i64 %12 to i128
  %14 = mul i128 %11, %13
  store i128 %14, ptr %9, align 16, !tbaa !29
  %15 = load i128, ptr %9, align 16, !tbaa !29
  %16 = lshr i128 %15, 64
  %17 = trunc i128 %16 to i64
  %18 = load ptr, ptr %5, align 8, !tbaa !9
  store i64 %17, ptr %18, align 8, !tbaa !3
  %19 = load i128, ptr %9, align 16, !tbaa !29
  %20 = trunc i128 %19 to i64
  %21 = load ptr, ptr %6, align 8, !tbaa !9
  store i64 %20, ptr %21, align 8, !tbaa !3
  call void @llvm.lifetime.end.p0(i64 16, ptr %9) #10
  ret void
}

; Function Attrs: inlinehint nounwind uwtable
define internal i64 @mul_size_t_overflow(i64 noundef %0, i64 noundef %1, ptr noundef %2) #6 {
  %4 = alloca i64, align 8
  %5 = alloca i64, align 8
  %6 = alloca ptr, align 8
  %7 = alloca i64, align 8
  %8 = alloca i64, align 8
  store i64 %0, ptr %4, align 8, !tbaa !3
  store i64 %1, ptr %5, align 8, !tbaa !3
  store ptr %2, ptr %6, align 8, !tbaa !9
  call void @llvm.lifetime.start.p0(i64 8, ptr %7) #10
  call void @llvm.lifetime.start.p0(i64 8, ptr %8) #10
  %9 = load i64, ptr %4, align 8, !tbaa !3
  %10 = load i64, ptr %5, align 8, !tbaa !3
  call void @_mpd_mul_words(ptr noundef %7, ptr noundef %8, i64 noundef %9, i64 noundef %10)
  %11 = load i64, ptr %7, align 8, !tbaa !3
  %12 = load ptr, ptr %6, align 8, !tbaa !9
  store i64 %11, ptr %12, align 8, !tbaa !3
  %13 = load i64, ptr %8, align 8, !tbaa !3
  call void @llvm.lifetime.end.p0(i64 8, ptr %8) #10
  call void @llvm.lifetime.end.p0(i64 8, ptr %7) #10
  ret i64 %13
}

; Function Attrs: nounwind uwtable
define hidden ptr @mpd_realloc(ptr noundef %0, i64 noundef %1, i64 noundef %2, ptr noundef %3) #4 {
  %5 = alloca ptr, align 8
  %6 = alloca ptr, align 8
  %7 = alloca i64, align 8
  %8 = alloca i64, align 8
  %9 = alloca ptr, align 8
  %10 = alloca ptr, align 8
  %11 = alloca i64, align 8
  %12 = alloca i64, align 8
  %13 = alloca i32, align 4
  store ptr %0, ptr %6, align 8, !tbaa !7
  store i64 %1, ptr %7, align 8, !tbaa !3
  store i64 %2, ptr %8, align 8, !tbaa !3
  store ptr %3, ptr %9, align 8, !tbaa !11
  call void @llvm.lifetime.start.p0(i64 8, ptr %10) #10
  call void @llvm.lifetime.start.p0(i64 8, ptr %11) #10
  call void @llvm.lifetime.start.p0(i64 8, ptr %12) #10
  %14 = load i64, ptr %7, align 8, !tbaa !3
  %15 = load i64, ptr %8, align 8, !tbaa !3
  %16 = call i64 @mul_size_t_overflow(i64 noundef %14, i64 noundef %15, ptr noundef %12)
  store i64 %16, ptr %11, align 8, !tbaa !3
  %17 = load i64, ptr %12, align 8, !tbaa !3
  %18 = icmp ne i64 %17, 0
  br i1 %18, label %19, label %22

19:                                               ; preds = %4
  %20 = load ptr, ptr %9, align 8, !tbaa !11
  store i8 1, ptr %20, align 1, !tbaa !13
  %21 = load ptr, ptr %6, align 8, !tbaa !7
  store ptr %21, ptr %5, align 8
  store i32 1, ptr %13, align 4
  br label %34

22:                                               ; preds = %4
  %23 = load ptr, ptr @mpd_reallocfunc, align 8, !tbaa !7
  %24 = load ptr, ptr %6, align 8, !tbaa !7
  %25 = load i64, ptr %11, align 8, !tbaa !3
  %26 = call ptr %23(ptr noundef %24, i64 noundef %25)
  store ptr %26, ptr %10, align 8, !tbaa !7
  %27 = load ptr, ptr %10, align 8, !tbaa !7
  %28 = icmp eq ptr %27, null
  br i1 %28, label %29, label %32

29:                                               ; preds = %22
  %30 = load ptr, ptr %9, align 8, !tbaa !11
  store i8 1, ptr %30, align 1, !tbaa !13
  %31 = load ptr, ptr %6, align 8, !tbaa !7
  store ptr %31, ptr %5, align 8
  store i32 1, ptr %13, align 4
  br label %34

32:                                               ; preds = %22
  %33 = load ptr, ptr %10, align 8, !tbaa !7
  store ptr %33, ptr %5, align 8
  store i32 1, ptr %13, align 4
  br label %34

34:                                               ; preds = %32, %29, %19
  call void @llvm.lifetime.end.p0(i64 8, ptr %12) #10
  call void @llvm.lifetime.end.p0(i64 8, ptr %11) #10
  call void @llvm.lifetime.end.p0(i64 8, ptr %10) #10
  %35 = load ptr, ptr %5, align 8
  ret ptr %35
}

; Function Attrs: nounwind uwtable
define hidden i32 @mpd_realloc_dyn(ptr noundef %0, i64 noundef %1, ptr noundef %2) #4 {
  %4 = alloca i32, align 4
  %5 = alloca ptr, align 8
  %6 = alloca i64, align 8
  %7 = alloca ptr, align 8
  %8 = alloca i8, align 1
  %9 = alloca i32, align 4
  store ptr %0, ptr %5, align 8, !tbaa !14
  store i64 %1, ptr %6, align 8, !tbaa !3
  store ptr %2, ptr %7, align 8, !tbaa !25
  call void @llvm.lifetime.start.p0(i64 1, ptr %8) #10
  store i8 0, ptr %8, align 1, !tbaa !13
  %10 = load ptr, ptr %5, align 8, !tbaa !14
  %11 = getelementptr inbounds nuw %struct.mpd_t, ptr %10, i32 0, i32 5
  %12 = load ptr, ptr %11, align 8, !tbaa !16
  %13 = load i64, ptr %6, align 8, !tbaa !3
  %14 = call ptr @mpd_realloc(ptr noundef %12, i64 noundef %13, i64 noundef 8, ptr noundef %8)
  %15 = load ptr, ptr %5, align 8, !tbaa !14
  %16 = getelementptr inbounds nuw %struct.mpd_t, ptr %15, i32 0, i32 5
  store ptr %14, ptr %16, align 8, !tbaa !16
  %17 = load i8, ptr %8, align 1, !tbaa !13
  %18 = icmp ne i8 %17, 0
  br i1 %18, label %23, label %19

19:                                               ; preds = %3
  %20 = load i64, ptr %6, align 8, !tbaa !3
  %21 = load ptr, ptr %5, align 8, !tbaa !14
  %22 = getelementptr inbounds nuw %struct.mpd_t, ptr %21, i32 0, i32 4
  store i64 %20, ptr %22, align 8, !tbaa !22
  br label %42

23:                                               ; preds = %3
  %24 = load i64, ptr %6, align 8, !tbaa !3
  %25 = load ptr, ptr %5, align 8, !tbaa !14
  %26 = getelementptr inbounds nuw %struct.mpd_t, ptr %25, i32 0, i32 4
  %27 = load i64, ptr %26, align 8, !tbaa !22
  %28 = icmp sgt i64 %24, %27
  br i1 %28, label %29, label %41

29:                                               ; preds = %23
  %30 = load ptr, ptr %5, align 8, !tbaa !14
  call void @mpd_set_qnan(ptr noundef %30)
  %31 = load ptr, ptr %5, align 8, !tbaa !14
  call void @mpd_set_positive(ptr noundef %31)
  %32 = load ptr, ptr %5, align 8, !tbaa !14
  %33 = getelementptr inbounds nuw %struct.mpd_t, ptr %32, i32 0, i32 3
  store i64 0, ptr %33, align 8, !tbaa !21
  %34 = load ptr, ptr %5, align 8, !tbaa !14
  %35 = getelementptr inbounds nuw %struct.mpd_t, ptr %34, i32 0, i32 2
  store i64 0, ptr %35, align 8, !tbaa !20
  %36 = load ptr, ptr %5, align 8, !tbaa !14
  %37 = getelementptr inbounds nuw %struct.mpd_t, ptr %36, i32 0, i32 1
  store i64 0, ptr %37, align 8, !tbaa !19
  %38 = load ptr, ptr %7, align 8, !tbaa !25
  %39 = load i32, ptr %38, align 4, !tbaa !27
  %40 = or i32 %39, 512
  store i32 %40, ptr %38, align 4, !tbaa !27
  store i32 0, ptr %4, align 4
  store i32 1, ptr %9, align 4
  br label %43

41:                                               ; preds = %23
  br label %42

42:                                               ; preds = %41, %19
  store i32 1, ptr %4, align 4
  store i32 1, ptr %9, align 4
  br label %43

43:                                               ; preds = %42, %29
  call void @llvm.lifetime.end.p0(i64 1, ptr %8) #10
  %44 = load i32, ptr %4, align 4
  ret i32 %44
}