; Function Attrs: nounwind uwtable
define hidden range(i32 0, 2) i32 @mpd_realloc_dyn(ptr noundef %0, i64 noundef %1, ptr noundef captures(none) %2) local_unnamed_addr #4 {
  %4 = getelementptr inbounds nuw i8, ptr %0, i64 40
  %5 = load ptr, ptr %4, align 8, !tbaa !10
  %6 = icmp ugt i64 %1, 2305843009213693951
  br i1 %6, label %13, label %7

7:                                                ; preds = %3
  %umul.value.i = shl nuw i64 %1, 3
  %8 = load ptr, ptr @mpd_reallocfunc, align 8, !tbaa !3
  %9 = tail call ptr %8(ptr noundef %5, i64 noundef %umul.value.i) #9
  %10 = icmp eq ptr %9, null
  br i1 %10, label %13, label %11

11:                                               ; preds = %7
  store ptr %9, ptr %4, align 8, !tbaa !10
  %12 = getelementptr inbounds nuw i8, ptr %0, i64 32
  store i64 %1, ptr %12, align 8, !tbaa !14
  br label %21

13:                                               ; preds = %7, %3
  store ptr %5, ptr %4, align 8, !tbaa !10
  %14 = getelementptr inbounds nuw i8, ptr %0, i64 32
  %15 = load i64, ptr %14, align 8, !tbaa !14
  %16 = icmp sgt i64 %1, %15
  br i1 %16, label %17, label %21

17:                                               ; preds = %13
  tail call void @mpd_set_qnan(ptr noundef nonnull %0) #9
  tail call void @mpd_set_positive(ptr noundef nonnull %0) #9
  %18 = getelementptr inbounds nuw i8, ptr %0, i64 8
  tail call void @llvm.memset.p0.i64(ptr noundef nonnull align 8 dereferenceable(24) %18, i8 0, i64 24, i1 false)
  %19 = load i32, ptr %2, align 4, !tbaa !15
  %20 = or i32 %19, 512
  store i32 %20, ptr %2, align 4, !tbaa !15
  br label %21

21:                                               ; preds = %11, %13, %17
  %.0 = phi i32 [ 0, %17 ], [ 1, %13 ], [ 1, %11 ]
  ret i32 %.0
}